; Function Attrs: mustprogress uwtable
define internal void @_ZL21connector_arg_destroyPv(ptr noundef %0) #4 {
  %2 = icmp eq ptr %0, null
  br i1 %2, label %_ZNK9grpc_core10RefCountedI23grpc_security_connectorNS_19PolymorphicRefCountENS_11UnrefDeleteEE5UnrefERKNS_13DebugLocationEPKc.exit, label %3

3:                                                ; preds = %1
  %4 = getelementptr inbounds nuw i8, ptr %0, i64 8
  %5 = atomicrmw sub ptr %4, i64 1 acq_rel, align 8
  %6 = icmp eq i64 %5, 1
  br i1 %6, label %7, label %_ZNK9grpc_core10RefCountedI23grpc_security_connectorNS_19PolymorphicRefCountENS_11UnrefDeleteEE5UnrefERKNS_13DebugLocationEPKc.exit, !prof !22

7:                                                ; preds = %3
  %8 = load ptr, ptr %0, align 8, !tbaa !12
  %9 = getelementptr inbounds nuw i8, ptr %8, i64 8
  %10 = load ptr, ptr %9, align 8
  tail call void %10(ptr noundef nonnull align 8 dereferenceable(32) %0) #26
  br label %_ZNK9grpc_core10RefCountedI23grpc_security_connectorNS_19PolymorphicRefCountENS_11UnrefDeleteEE5UnrefERKNS_13DebugLocationEPKc.exit

_ZNK9grpc_core10RefCountedI23grpc_security_connectorNS_19PolymorphicRefCountENS_11UnrefDeleteEE5UnrefERKNS_13DebugLocationEPKc.exit: ; preds = %7, %3, %1
  ret void
}